; Function Attrs: mustprogress nofree norecurse nosync nounwind willreturn memory(argmem: readwrite) uwtable
define dso_local void @bit_clear(ptr noundef captures(none) %0, i64 noundef %1) #1 {
  %3 = and i64 %1, 63
  %4 = shl nuw i64 1, %3
  %5 = xor i64 %4, -1
  %6 = ashr i64 %1, 6
  %7 = getelementptr i64, ptr %0, i64 %6
  %8 = getelementptr i8, ptr %7, i64 16
  %9 = load i64, ptr %8, align 8
  %10 = and i64 %9, %5
  store i64 %10, ptr %8, align 8
  ret void
}